; Function Attrs: nounwind sspstrong uwtable
define internal noundef i64 @nucomp_marshal_load(i64 noundef returned %0, i64 noundef %1) #0 {
  %3 = icmp eq i64 %1, 0
  %4 = and i64 %1, 7
  %5 = icmp ne i64 %4, 0
  %6 = or i1 %3, %5
  br i1 %6, label %rbimpl_RB_TYPE_P_fastpath.exit.thread.i, label %rbimpl_RB_TYPE_P_fastpath.exit.i, !prof !52

rbimpl_RB_TYPE_P_fastpath.exit.i:                 ; preds = %2
  %7 = inttoptr i64 %1 to ptr
  %8 = load i64, ptr %7, align 8, !tbaa !19
  %9 = and i64 %8, 31
  %10 = icmp eq i64 %9, 7
  br i1 %10, label %Check_Type.exit, label %rbimpl_RB_TYPE_P_fastpath.exit.thread.i, !prof !53

rbimpl_RB_TYPE_P_fastpath.exit.thread.i:          ; preds = %rbimpl_RB_TYPE_P_fastpath.exit.i, %2
  tail call void @rb_unexpected_type(i64 noundef %1, i32 noundef 7) #23
  unreachable

Check_Type.exit:                                  ; preds = %rbimpl_RB_TYPE_P_fastpath.exit.i
  %11 = and i64 %8, 8192
  %.not.i = icmp eq i64 %11, 0
  br i1 %.not.i, label %rb_array_len.exit, label %rb_array_len.exit.thread

rb_array_len.exit:                                ; preds = %Check_Type.exit
  %12 = getelementptr inbounds nuw i8, ptr %7, i64 16
  %13 = load i64, ptr %12, align 8, !tbaa !48
  %.not = icmp eq i64 %13, 2
  br i1 %.not, label %20, label %16

rb_array_len.exit.thread:                         ; preds = %Check_Type.exit
  %14 = lshr i64 %8, 15
  %15 = and i64 %14, 127
  %.not12 = icmp eq i64 %15, 2
  br i1 %.not12, label %18, label %16

16:                                               ; preds = %rb_array_len.exit.thread, %rb_array_len.exit
  %.0.i13 = phi i64 [ %15, %rb_array_len.exit.thread ], [ %13, %rb_array_len.exit ]
  %17 = load i64, ptr @rb_eArgError, align 8, !tbaa !11
  tail call void (i64, ptr, ...) @rb_raise(i64 noundef %17, ptr noundef nonnull @.str.76, i64 noundef %.0.i13) #21
  unreachable

18:                                               ; preds = %rb_array_len.exit.thread
  %19 = getelementptr inbounds nuw i8, ptr %7, i64 16
  br label %RARRAY_AREF.exit

20:                                               ; preds = %rb_array_len.exit
  %21 = getelementptr inbounds nuw i8, ptr %7, i64 32
  %22 = load ptr, ptr %21, align 8, !tbaa !48
  br label %RARRAY_AREF.exit

RARRAY_AREF.exit:                                 ; preds = %18, %20
  %.0.i.i = phi ptr [ %19, %18 ], [ %22, %20 ]
  %23 = load i64, ptr @id_i_real, align 8, !tbaa !11
  %24 = load i64, ptr %.0.i.i, align 8, !tbaa !11
  %25 = tail call i64 @rb_ivar_set(i64 noundef %0, i64 noundef %23, i64 noundef %24) #17
  %26 = load i64, ptr @id_i_imag, align 8, !tbaa !11
  %27 = load i64, ptr %7, align 8, !tbaa !19
  %28 = and i64 %27, 8192
  %.not.i.i8 = icmp eq i64 %28, 0
  br i1 %.not.i.i8, label %31, label %29

29:                                               ; preds = %RARRAY_AREF.exit
  %30 = getelementptr inbounds nuw i8, ptr %7, i64 16
  br label %RARRAY_AREF.exit10

31:                                               ; preds = %RARRAY_AREF.exit
  %32 = getelementptr inbounds nuw i8, ptr %7, i64 32
  %33 = load ptr, ptr %32, align 8, !tbaa !48
  br label %RARRAY_AREF.exit10

RARRAY_AREF.exit10:                               ; preds = %29, %31
  %.0.i.i9 = phi ptr [ %30, %29 ], [ %33, %31 ]
  %34 = getelementptr i8, ptr %.0.i.i9, i64 8
  %35 = load i64, ptr %34, align 8, !tbaa !11
  %36 = tail call i64 @rb_ivar_set(i64 noundef %0, i64 noundef %26, i64 noundef %35) #17
  ret i64 %0
}